; Function Attrs: mustprogress nofree norecurse nosync nounwind willreturn memory(read, inaccessiblemem: none) uwtable
define hidden noundef zeroext i1 @_ZN3sls10seq_plugin13is_num_stringERK7zstring(ptr noundef nonnull readnone align 8 captures(none) dereferenceable(768) %0, ptr noundef nonnull readonly align 8 captures(none) dereferenceable(80) %1) local_unnamed_addr #11 align 2 {
  %3 = getelementptr inbounds nuw i8, ptr %1, i64 8
  %4 = load i32, ptr %3, align 8, !tbaa !182
  %.not = icmp eq i32 %4, 0
  br i1 %.not, label %.critedge, label %.lr.ph

.lr.ph:                                           ; preds = %2
  %5 = load ptr, ptr %1, align 8, !tbaa !136
  %6 = zext i32 %4 to i64
  br label %7

.critedge:                                        ; preds = %7, %2
  %.09.in.lcssa = phi i1 [ false, %2 ], [ %spec.select, %7 ]
  ret i1 %.09.in.lcssa

7:                                                ; preds = %.lr.ph, %7
  %indvars.iv = phi i64 [ 0, %.lr.ph ], [ %indvars.iv.next, %7 ]
  %8 = getelementptr inbounds nuw i32, ptr %5, i64 %indvars.iv
  %9 = load i32, ptr %8, align 4, !tbaa !130
  %10 = add i32 %9, -48
  %spec.select = icmp ult i32 %10, 10
  %indvars.iv.next = add nuw nsw i64 %indvars.iv, 1
  %11 = icmp samesign ult i64 %indvars.iv.next, %6
  %or.cond = select i1 %spec.select, i1 %11, i1 false
  br i1 %or.cond, label %7, label %.critedge, !llvm.loop !188
}